target datalayout = "e-m:e-p270:32:32-p271:32:32-p272:64:64-i64:64-i128:128-f80:128-n8:16:32:64-S128"
target triple = "x86_64-pc-linux-gnu"

%struct.lua_TValue = type { %union.Value, [1 x i32], i32 }
%union.Value = type { ptr }
%struct.Table = type { i8, i8, i8, i8, i8, i8, i8, i8, i32, %union.anon, ptr, ptr, ptr, ptr }
%union.anon = type { i32 }
%struct.lua_State = type { i8, i8, i8, i8, i8, i8, i8, ptr, ptr, ptr, ptr, ptr, ptr, ptr, ptr, i32, i32, i16, i16, i32, ptr, ptr, ptr, ptr, ptr }
%struct.CallInfo = type { ptr, ptr, ptr, ptr, i32, i32 }
%struct.Closure = type { i8, i8, i8, i8, i8, i8, i8, ptr, ptr, %union.anon.1 }
%union.anon.1 = type { %struct.anon }
%struct.anon = type { ptr, ptr, ptr, [1 x %struct.lua_TValue] }

; Function Attrs: mustprogress uwtable
define dso_local noundef ptr @_ZN4Luau7CodeGen16executeGETGLOBALEP9lua_StatePKjP10lua_TValueS6_(ptr noundef %0, ptr noundef %1, ptr noundef %2, ptr noundef %3) #2 {
  %5 = alloca ptr, align 8
  %6 = alloca ptr, align 8
  %7 = alloca ptr, align 8
  %8 = alloca ptr, align 8
  %9 = alloca ptr, align 8
  %10 = alloca i32, align 4
  %11 = alloca ptr, align 8
  %12 = alloca i32, align 4
  %13 = alloca ptr, align 8
  %14 = alloca ptr, align 8
  %15 = alloca i32, align 4
  %16 = alloca %struct.lua_TValue, align 8
  %17 = alloca ptr, align 8
  store ptr %0, ptr %5, align 8
  store ptr %1, ptr %6, align 8
  store ptr %2, ptr %7, align 8
  store ptr %3, ptr %8, align 8
  %18 = load ptr, ptr %5, align 8
  %19 = getelementptr inbounds %struct.lua_State, ptr %18, i32 0, i32 10
  %20 = load ptr, ptr %19, align 8
  %21 = getelementptr inbounds %struct.CallInfo, ptr %20, i32 0, i32 1
  %22 = load ptr, ptr %21, align 8
  %23 = getelementptr inbounds %struct.lua_TValue, ptr %22, i32 0, i32 0
  %24 = load ptr, ptr %23, align 8
  store ptr %24, ptr %9, align 8
  %25 = load ptr, ptr %6, align 8
  %26 = getelementptr inbounds i32, ptr %25, i32 1
  store ptr %26, ptr %6, align 8
  %27 = load i32, ptr %25, align 4
  store i32 %27, ptr %10, align 4
  %28 = load ptr, ptr %7, align 8
  %29 = load i32, ptr %10, align 4
  %30 = lshr i32 %29, 8
  %31 = and i32 %30, 255
  %32 = zext i32 %31 to i64
  %33 = getelementptr inbounds %struct.lua_TValue, ptr %28, i64 %32
  store ptr %33, ptr %11, align 8
  %34 = load ptr, ptr %6, align 8
  %35 = getelementptr inbounds i32, ptr %34, i32 1
  store ptr %35, ptr %6, align 8
  %36 = load i32, ptr %34, align 4
  store i32 %36, ptr %12, align 4
  %37 = load ptr, ptr %8, align 8
  %38 = load i32, ptr %12, align 4
  %39 = zext i32 %38 to i64
  %40 = getelementptr inbounds %struct.lua_TValue, ptr %37, i64 %39
  store ptr %40, ptr %13, align 8
  %41 = load ptr, ptr %9, align 8
  %42 = getelementptr inbounds %struct.Closure, ptr %41, i32 0, i32 8
  %43 = load ptr, ptr %42, align 8
  store ptr %43, ptr %14, align 8
  %44 = load i32, ptr %10, align 4
  %45 = lshr i32 %44, 24
  %46 = and i32 %45, 255
  %47 = load ptr, ptr %14, align 8
  %48 = getelementptr inbounds %struct.Table, ptr %47, i32 0, i32 7
  %49 = load i8, ptr %48, align 1
  %50 = zext i8 %49 to i32
  %51 = and i32 %46, %50
  store i32 %51, ptr %15, align 4
  store ptr %16, ptr %17, align 8
  %52 = load ptr, ptr %14, align 8
  %53 = load ptr, ptr %17, align 8
  %54 = getelementptr inbounds %struct.lua_TValue, ptr %53, i32 0, i32 0
  store ptr %52, ptr %54, align 8
  %55 = load ptr, ptr %17, align 8
  %56 = getelementptr inbounds %struct.lua_TValue, ptr %55, i32 0, i32 2
  store i32 6, ptr %56, align 4
  %57 = load i32, ptr %15, align 4
  %58 = load ptr, ptr %5, align 8
  %59 = getelementptr inbounds %struct.lua_State, ptr %58, i32 0, i32 19
  store i32 %57, ptr %59, align 4
  %60 = load ptr, ptr %6, align 8
  %61 = load ptr, ptr %5, align 8
  %62 = getelementptr inbounds %struct.lua_State, ptr %61, i32 0, i32 10
  %63 = load ptr, ptr %62, align 8
  %64 = getelementptr inbounds %struct.CallInfo, ptr %63, i32 0, i32 3
  store ptr %60, ptr %64, align 8
  %65 = load ptr, ptr %5, align 8
  %66 = load ptr, ptr %13, align 8
  %67 = load ptr, ptr %11, align 8
  call void @_Z13luaV_gettableP9lua_StatePK10lua_TValuePS1_S4_(ptr noundef %65, ptr noundef %16, ptr noundef %66, ptr noundef %67)
  %68 = load ptr, ptr %5, align 8
  %69 = getelementptr inbounds %struct.lua_State, ptr %68, i32 0, i32 8
  %70 = load ptr, ptr %69, align 8
  store ptr %70, ptr %7, align 8
  %71 = load ptr, ptr %5, align 8
  %72 = getelementptr inbounds %struct.lua_State, ptr %71, i32 0, i32 19
  %73 = load i32, ptr %72, align 4
  %74 = trunc i32 %73 to i8
  %75 = zext i8 %74 to i32
  %76 = shl i32 %75, 24
  %77 = load ptr, ptr %6, align 8
  %78 = getelementptr inbounds i32, ptr %77, i64 -2
  %79 = load i32, ptr %78, align 4
  %80 = and i32 16777215, %79
  %81 = or i32 %76, %80
  %82 = load ptr, ptr %6, align 8
  %83 = getelementptr inbounds i32, ptr %82, i64 -2
  store i32 %81, ptr %83, align 4
  %84 = load ptr, ptr %6, align 8
  ret ptr %84
}